target datalayout = "e-m:e-p270:32:32-p271:32:32-p272:64:64-i64:64-i128:128-f80:128-n8:16:32:64-S128"
target triple = "x86_64-pc-linux-gnu"

%struct.option = type { i32, i32, ptr, ptr, ptr, ptr, i32, ptr, i64, ptr, i64, ptr }

@.str = private unnamed_addr constant [4 x i8] c"all\00", align 1
@.str.34 = private unnamed_addr constant [25 x i8] c"builtin/checkout-index.c\00", align 1
@.str.35 = private unnamed_addr constant [41 x i8] c"option callback does not expect negation\00", align 1
@.str.36 = private unnamed_addr constant [39 x i8] c"stage should be between 1 and 3 or all\00", align 1

; Function Attrs: nounwind uwtable
define internal i32 @option_parse_stage(ptr noundef %0, ptr noundef %1, i32 noundef %2) #0 {
  %4 = alloca ptr, align 8
  %5 = alloca ptr, align 8
  %6 = alloca i32, align 4
  %7 = alloca ptr, align 8
  %8 = alloca i32, align 4
  store ptr %0, ptr %4, align 8, !tbaa !64
  store ptr %1, ptr %5, align 8, !tbaa !11
  store i32 %2, ptr %6, align 4, !tbaa !4
  call void @llvm.lifetime.start.p0(i64 8, ptr %7) #9
  %9 = load ptr, ptr %4, align 8, !tbaa !64
  %10 = getelementptr inbounds nuw %struct.option, ptr %9, i32 0, i32 3
  %11 = load ptr, ptr %10, align 8, !tbaa !20
  store ptr %11, ptr %7, align 8, !tbaa !66
  br label %12

12:                                               ; preds = %3
  %13 = load i32, ptr %6, align 4, !tbaa !4
  %14 = icmp ne i32 %13, 0
  br i1 %14, label %15, label %16

15:                                               ; preds = %12
  call void (ptr, i32, ptr, ...) @BUG_fl(ptr noundef @.str.34, i32 noundef 199, ptr noundef @.str.35) #11
  unreachable

16:                                               ; preds = %12
  br label %17

17:                                               ; preds = %16
  br label %18

18:                                               ; preds = %17
  %19 = load ptr, ptr %5, align 8, !tbaa !11
  %20 = call i32 @strcmp(ptr noundef %19, ptr noundef @.str) #10
  %21 = icmp ne i32 %20, 0
  br i1 %21, label %24, label %22

22:                                               ; preds = %18
  %23 = load ptr, ptr %7, align 8, !tbaa !66
  store i32 4, ptr %23, align 4, !tbaa !4
  br label %44

24:                                               ; preds = %18
  call void @llvm.lifetime.start.p0(i64 4, ptr %8) #9
  %25 = load ptr, ptr %5, align 8, !tbaa !11
  %26 = getelementptr inbounds i8, ptr %25, i64 0
  %27 = load i8, ptr %26, align 1, !tbaa !62
  %28 = sext i8 %27 to i32
  store i32 %28, ptr %8, align 4, !tbaa !4
  %29 = load i32, ptr %8, align 4, !tbaa !4
  %30 = icmp sle i32 49, %29
  br i1 %30, label %31, label %41

31:                                               ; preds = %24
  %32 = load i32, ptr %8, align 4, !tbaa !4
  %33 = icmp sle i32 %32, 51
  br i1 %33, label %34, label %41

34:                                               ; preds = %31
  %35 = load ptr, ptr %5, align 8, !tbaa !11
  %36 = getelementptr inbounds i8, ptr %35, i64 0
  %37 = load i8, ptr %36, align 1, !tbaa !62
  %38 = sext i8 %37 to i32
  %39 = sub nsw i32 %38, 48
  %40 = load ptr, ptr %7, align 8, !tbaa !66
  store i32 %39, ptr %40, align 4, !tbaa !4
  br label %43

41:                                               ; preds = %31, %24
  %42 = call ptr @_(ptr noundef @.str.36)
  call void (ptr, ...) @die(ptr noundef %42) #11
  unreachable

43:                                               ; preds = %34
  call void @llvm.lifetime.end.p0(i64 4, ptr %8) #9
  br label %44

44:                                               ; preds = %43, %22
  call void @llvm.lifetime.end.p0(i64 8, ptr %7) #9
  ret i32 0
}