; Function Attrs: nounwind uwtable
define internal noundef i32 @option_parse_stage(ptr noundef readonly captures(none) %0, ptr noundef readonly captures(none) %1, i32 noundef %2) #0 {
  %4 = getelementptr inbounds nuw i8, ptr %0, i64 16
  %5 = load ptr, ptr %4, align 8, !tbaa !15
  %.not = icmp eq i32 %2, 0
  br i1 %.not, label %7, label %6

6:                                                ; preds = %3
  tail call void (ptr, i32, ptr, ...) @BUG_fl(ptr noundef nonnull @.str.34, i32 noundef 199, ptr noundef nonnull @.str.35) #15
  unreachable

7:                                                ; preds = %3
  %8 = tail call i32 @strcmp(ptr noundef nonnull dereferenceable(1) %1, ptr noundef nonnull dereferenceable(4) @.str) #14
  %.not9 = icmp eq i32 %8, 0
  br i1 %.not9, label %17, label %9

9:                                                ; preds = %7
  %10 = load i8, ptr %1, align 1, !tbaa !57
  %11 = add i8 %10, -49
  %or.cond = icmp ult i8 %11, 3
  br i1 %or.cond, label %12, label %15

12:                                               ; preds = %9
  %13 = zext nneg i8 %10 to i32
  %14 = add nsw i32 %13, -48
  br label %17

15:                                               ; preds = %9
  %16 = tail call fastcc ptr @_(ptr noundef nonnull @.str.36)
  tail call void (ptr, ...) @die(ptr noundef %16) #15
  unreachable

17:                                               ; preds = %7, %12
  %storemerge = phi i32 [ %14, %12 ], [ 4, %7 ]
  store i32 %storemerge, ptr %5, align 4, !tbaa !4
  ret i32 0
}